; Function Attrs: nounwind sspstrong uwtable
define internal void @set_refcount_ro5(ptr noundef writeonly captures(none) %refcount_array, i64 noundef %index, i64 noundef %value) #0 {
entry:
  %tobool.not = icmp ult i64 %value, 4294967296
  br i1 %tobool.not, label %if.end, label %if.else

if.else:                                          ; preds = %entry
  tail call void @__assert_fail(ptr noundef nonnull @.str.49, ptr noundef nonnull @.str.1, i32 noundef 216, ptr noundef nonnull @__PRETTY_FUNCTION__.set_refcount_ro5) #15
  unreachable

if.end:                                           ; preds = %entry
  %conv = trunc nuw i64 %value to i32
  %0 = tail call noundef i32 @llvm.bswap.i32(i32 %conv)
  %arrayidx = getelementptr i32, ptr %refcount_array, i64 %index
  store i32 %0, ptr %arrayidx, align 4
  ret void
}